; Function Attrs: mustprogress nounwind uwtable
define void @_ZN3gmx15MdrunnerBuilderD2Ev(ptr noundef nonnull align 8 captures(none) dereferenceable(8) %0) unnamed_addr #11 align 2 personality ptr @__gxx_personality_v0 {
  %2 = load ptr, ptr %0, align 8, !tbaa !1246
  %.not.i = icmp eq ptr %2, null
  br i1 %.not.i, label %_ZNSt10unique_ptrIN3gmx8Mdrunner21BuilderImplementationESt14default_deleteIS2_EED2Ev.exit, label %_ZNKSt14default_deleteIN3gmx8Mdrunner21BuilderImplementationEEclEPS2_.exit.i

_ZNKSt14default_deleteIN3gmx8Mdrunner21BuilderImplementationEEclEPS2_.exit.i: ; preds = %1
  tail call void @_ZN3gmx8Mdrunner21BuilderImplementationD1Ev(ptr noundef nonnull align 8 dereferenceable(376) %2) #34
  tail call void @_ZdlPvm(ptr noundef nonnull %2, i64 noundef 376) #33
  br label %_ZNSt10unique_ptrIN3gmx8Mdrunner21BuilderImplementationESt14default_deleteIS2_EED2Ev.exit

_ZNSt10unique_ptrIN3gmx8Mdrunner21BuilderImplementationESt14default_deleteIS2_EED2Ev.exit: ; preds = %1, %_ZNKSt14default_deleteIN3gmx8Mdrunner21BuilderImplementationEEclEPS2_.exit.i
  store ptr null, ptr %0, align 8, !tbaa !1246
  ret void
}